; Function Attrs: nounwind uwtable
define noundef i32 @H5HF__dtable_dest(ptr noundef readonly captures(none) %0) local_unnamed_addr #0 {
  %2 = load i8, ptr @H5HF_init_g, align 1, !tbaa !3, !range !7, !noundef !8
  %3 = trunc nuw i8 %2 to i1
  %4 = load i8, ptr @H5_libterm_g, align 1, !range !7
  %5 = trunc nuw i8 %4 to i1
  %6 = xor i1 %5, true
  %7 = select i1 %3, i1 true, i1 %6
  br i1 %7, label %8, label %21, !prof !9

8:                                                ; preds = %1
  %9 = getelementptr inbounds nuw i8, ptr %0, i64 80
  %10 = load ptr, ptr %9, align 8, !tbaa !28
  %11 = tail call ptr @H5MM_xfree(ptr noundef %10) #7
  %12 = getelementptr inbounds nuw i8, ptr %0, i64 88
  %13 = load ptr, ptr %12, align 8, !tbaa !30
  %14 = tail call ptr @H5MM_xfree(ptr noundef %13) #7
  %15 = getelementptr inbounds nuw i8, ptr %0, i64 96
  %16 = load ptr, ptr %15, align 8, !tbaa !31
  %17 = tail call ptr @H5MM_xfree(ptr noundef %16) #7
  %18 = getelementptr inbounds nuw i8, ptr %0, i64 104
  %19 = load ptr, ptr %18, align 8, !tbaa !32
  %20 = tail call ptr @H5MM_xfree(ptr noundef %19) #7
  br label %21

21:                                               ; preds = %8, %1
  ret i32 0
}